; Function Attrs: nounwind uwtable
define void @duckdb_je_eset_init(ptr noundef %0, i32 noundef %1) local_unnamed_addr #0 {
  %3 = getelementptr inbounds nuw i8, ptr %0, i64 32
  %4 = getelementptr inbounds nuw i8, ptr %0, i64 6432
  br label %8

5:                                                ; preds = %8
  tail call void @llvm.memset.p0.i64(ptr noundef nonnull align 8 dereferenceable(32) %0, i8 0, i64 32, i1 false)
  %6 = getelementptr inbounds nuw i8, ptr %0, i64 9632
  store ptr null, ptr %6, align 8, !tbaa !3
  %7 = getelementptr inbounds nuw i8, ptr %0, i64 9648
  store i32 %1, ptr %7, align 8, !tbaa !10
  ret void

8:                                                ; preds = %2, %8
  %indvars.iv = phi i64 [ 0, %2 ], [ %indvars.iv.next, %8 ]
  %9 = getelementptr inbounds nuw [200 x %struct.eset_bin_s], ptr %3, i64 0, i64 %indvars.iv
  tail call void @duckdb_je_edata_heap_new(ptr noundef nonnull %9) #7
  %10 = getelementptr inbounds nuw [200 x %struct.eset_bin_stats_s], ptr %4, i64 0, i64 %indvars.iv
  store atomic i64 0, ptr %10 monotonic, align 8
  %11 = getelementptr inbounds nuw i8, ptr %10, i64 8
  store atomic i64 0, ptr %11 monotonic, align 8
  %indvars.iv.next = add nuw nsw i64 %indvars.iv, 1
  %exitcond.not = icmp eq i64 %indvars.iv.next, 200
  br i1 %exitcond.not, label %5, label %8
}